Certificate:
    Data:
        Version: 3 (0x2)
        Serial Number: 1 (0x1)
    Signature Algorithm: sha1WithRSAEncryption
        Issuer: C=CH, ST=Gungdong, L=Shenzhen, O=Mingxin, OU=INformation technology, CN=www.mhearts.com/emailAddress=hanshaofei@mhearts.com
        Validity
            Not Before: Feb 19 08:37:01 2019 GMT
            Not After : Feb 19 08:37:01 2020 GMT
        Subject: C=CH, ST=Guangdong, L=Shenzhen, O=Mingxin, OU=Information Technology, CN=www.mhearts.com/emailAddress=hanshaofei@mhearts.com
        Subject Public Key Info:
            Public Key Algorithm: rsaEncryption
                Public-Key: (1024 bit)
                Modulus:
                    00:d9:49:37:6b:19:16:b9:79:ce:27:b6:b2:53:eb:
                    9c:45:4e:60:1f:5d:22:ca:cb:04:48:c9:93:9c:4b:
                    36:49:92:4b:3a:03:47:53:39:b1:6d:48:10:e9:a8:
                    2d:1e:f7:aa:55:68:8e:d1:d2:a5:6c:e6:ec:fc:e8:
                    5b:fe:dd:2c:b4:79:80:e4:2c:e8:c1:20:48:51:b0:
                    b0:9f:58:22:9e:8c:82:35:d9:5c:27:30:91:fe:e6:
                    b8:00:85:96:29:88:56:79:29:6b:7e:22:77:35:42:
                    85:86:6b:37:4d:39:f5:34:93:02:d2:cf:17:70:1b:
                    94:9f:96:db:1b:ae:3b:e1:55
                Exponent: 65537 (0x10001)
        X509v3 extensions:
            X509v3 Authority Key Identifier: 
                keyid:46:FE:04:9F:E7:FC:34:ED:9E:AA:72:58:BD:35:4F:85:8C:DB:CE:92

            X509v3 Extended Key Usage: 
                TLS Web Server Authentication, TLS Web Client Authentication, Microsoft Server Gated Crypto, Netscape Server Gated Crypto
            X509v3 Basic Constraints: critical
                CA:FALSE
    Signature Algorithm: sha1WithRSAEncryption
         c8:c4:1a:09:b5:1c:fe:6b:94:b9:03:b9:53:fc:2b:e9:af:61:
         6c:d6:cc:b3:e5:c2:c7:d2:fa:c0:b3:82:1e:3a:05:ba:ea:ec:
         c0:31:1e:da:1c:d0:36:88:e1:6b:ca:7f:e8:a3:d0:f2:af:2e:
         11:93:6b:0f:f5:34:bb:a7:f5:7a:a8:0d:a8:95:dc:fb:68:c7:
         d0:da:77:aa:97:cc:5b:27:3e:47:c1:0b:75:cf:be:71:4d:d3:
         98:c3:11:b3:7e:52:79:f9:a7:61:f5:63:29:ed:9e:3c:8d:08:
         48:ab:bd:0b:dd:70:f8:a8:48:2d:a0:e3:f4:42:c9:1b:8d:d9:
         a6:89
-----BEGIN CERTIFICATE-----
MIIDLjCCApegAwIBAgIBATANBgkqhkiG9w0BAQUFADCBpzELMAkGA1UEBhMCQ0gx
ETAPBgNVBAgTCEd1bmdkb25nMREwDwYDVQQHEwhTaGVuemhlbjEQMA4GA1UEChMH
TWluZ3hpbjEfMB0GA1UECxMWSU5mb3JtYXRpb24gdGVjaG5vbG9neTEYMBYGA1UE
AxMPd3d3Lm1oZWFydHMuY29tMSUwIwYJKoZIhvcNAQkBFhZoYW5zaGFvZmVpQG1o
ZWFydHMuY29tMB4XDTE5MDIxOTA4MzcwMVoXDTIwMDIxOTA4MzcwMVowgagxCzAJ
BgNVBAYTAkNIMRIwEAYDVQQIEwlHdWFuZ2RvbmcxETAPBgNVBAcTCFNoZW56aGVu
MRAwDgYDVQQKEwdNaW5neGluMR8wHQYDVQQLExZJbmZvcm1hdGlvbiBUZWNobm9s
b2d5MRgwFgYDVQQDEw93d3cubWhlYXJ0cy5jb20xJTAjBgkqhkiG9w0BCQEWFmhh
bnNoYW9mZWlAbWhlYXJ0cy5jb20wgZ8wDQYJKoZIhvcNAQEBBQADgY0AMIGJAoGB
ANlJN2sZFrl5zie2slPrnEVOYB9dIsrLBEjJk5xLNkmSSzoDR1M5sW1IEOmoLR73
qlVojtHSpWzm7PzoW/7dLLR5gOQs6MEgSFGwsJ9YIp6MgjXZXCcwkf7muACFlimI
Vnkpa34idzVChYZrN0059TSTAtLPF3AblJ+W2xuuO+FVAgMBAAGjZzBlMB8GA1Ud
IwQYMBaAFEb+BJ/n/DTtnqpyWL01T4WM286SMDQGA1UdJQQtMCsGCCsGAQUFBwMB
BggrBgEFBQcDAgYKKwYBBAGCNwoDAwYJYIZIAYb4QgQBMAwGA1UdEwEB/wQCMAAw
DQYJKoZIhvcNAQEFBQADgYEAyMQaCbUc/muUuQO5U/wr6a9hbNbMs+XCx9L6wLOC
HjoFuurswDEe2hzQNojha8p/6KPQ8q8uEZNrD/U0u6f1eqgNqJXc+2jH0Np3qpfM
Wyc+R8ELdc++cU3TmMMRs35SefmnYfVjKe2ePI0ISKu9C91w+KhILaDj9ELJG43Z
pok=
-----END CERTIFICATE-----
-----BEGIN RSA PRIVATE KEY-----
MIICXAIBAAKBgQDZSTdrGRa5ec4ntrJT65xFTmAfXSLKywRIyZOcSzZJkks6A0dT
ObFtSBDpqC0e96pVaI7R0qVs5uz86Fv+3Sy0eYDkLOjBIEhRsLCfWCKejII12Vwn
MJH+5rgAhZYpiFZ5KWt+Inc1QoWGazdNOfU0kwLSzxdwG5SfltsbrjvhVQIDAQAB
AoGAEv6Mgqc5zlLwi5Yz9pQVIBXe3z8ECJhAsqA0cCg/AaVxQAwDUyoq8XOoTtSt
xRQ/ZqHyQjNY1LFHLECfsiLhgmgPzS2mvILJ1mRAheqT1s8bvoEBz41ZEMn3FYnm
0BZjiCxbpkggWSaWAnQFxvC8a0GN8CAZVal6n0t7PTr/NC0CQQDzDabrW37W/yct
txSn/+yzWzb3UYJKDCiHs1dhWJ0gcykZ6pqo5FMtd68pZ17oLWp7rTtUQkd/jGp3
Uck1y+U/AkEA5Nwxh0OcZHBNUTMWowJTV4qSLPbS38rel4FxdvsxGwCOZqWivIdA
ruWq1ryg8mgei/9/huv1aK0mU+2QNujwawJBAM7ZfIhrCsyww8gdOuArZ2fRJjtf
TBH2vPuYPrJjNv4p4/3hcpRwFPXqGNGU3umb1TbCXG6+JZlAiE9Z9HLrPwMCQFOs
cetLe+145bvPWvJkUkZKYqFP6M9ro7Bu4iYnNs/xhx7eZj5ZkPug+rIiKxIVoT18
P4r70DDiRYYf8D8zMVsCQCeO2sBoBf10k0GMayRE4SW4QF1m++wWC0ShDO4m8U1L
7mchUyP5MCs46b28tu/lywbq4Oam0iqUcpT+91sBpHQ=
-----END RSA PRIVATE KEY-----
